target datalayout = "e-m:e-p270:32:32-p271:32:32-p272:64:64-i64:64-i128:128-f80:128-n8:16:32:64-S128"
target triple = "x86_64-unknown-linux-gnu"

%"class.icu_75::CheckedArrayByteSink" = type <{ %"class.icu_75::ByteSink", ptr, i32, i32, i32, i8, [3 x i8] }>
%"class.icu_75::ByteSink" = type { ptr }

@_ZTVN6icu_758ByteSinkE = unnamed_addr constant { [7 x ptr] } { [7 x ptr] [ptr null, ptr @_ZTIN6icu_758ByteSinkE, ptr @_ZN6icu_758ByteSinkD1Ev, ptr @_ZN6icu_758ByteSinkD0Ev, ptr @__cxa_pure_virtual, ptr @_ZN6icu_758ByteSink15GetAppendBufferEiiPciPi, ptr @_ZN6icu_758ByteSink5FlushEv] }, align 8

; Function Attrs: mustprogress nounwind uwtable
define linkonce_odr void @_ZN6icu_758ByteSinkC2Ev(ptr noundef nonnull align 8 dereferenceable(8) %this) unnamed_addr #0 comdat align 2 {
entry:
  %this.addr = alloca ptr, align 8
  store ptr %this, ptr %this.addr, align 8
  %this1 = load ptr, ptr %this.addr, align 8
  store ptr getelementptr inbounds ({ [7 x ptr] }, ptr @_ZTVN6icu_758ByteSinkE, i32 0, i32 0, i32 2), ptr %this1, align 8
  ret void
}

; Function Attrs: mustprogress uwtable
define void @_ZN6icu_7520CheckedArrayByteSinkC2EPci(ptr noundef nonnull align 8 dereferenceable(29) %this, ptr noundef %outbuf, i32 noundef %capacity) unnamed_addr #2 align 2 {
entry:
  %this.addr = alloca ptr, align 8
  %outbuf.addr = alloca ptr, align 8
  %capacity.addr = alloca i32, align 4
  store ptr %this, ptr %this.addr, align 8
  store ptr %outbuf, ptr %outbuf.addr, align 8
  store i32 %capacity, ptr %capacity.addr, align 4
  %this1 = load ptr, ptr %this.addr, align 8
  call void @_ZN6icu_758ByteSinkC2Ev(ptr noundef nonnull align 8 dereferenceable(8) %this1)
  store ptr getelementptr inbounds ({ [8 x ptr] }, ptr @_ZTVN6icu_7520CheckedArrayByteSinkE, i32 0, i32 0, i32 2), ptr %this1, align 8
  %outbuf_ = getelementptr inbounds %"class.icu_75::CheckedArrayByteSink", ptr %this1, i32 0, i32 1
  %0 = load ptr, ptr %outbuf.addr, align 8
  store ptr %0, ptr %outbuf_, align 8
  %capacity_ = getelementptr inbounds %"class.icu_75::CheckedArrayByteSink", ptr %this1, i32 0, i32 2
  %1 = load i32, ptr %capacity.addr, align 4
  %cmp = icmp slt i32 %1, 0
  br i1 %cmp, label %cond.true, label %cond.false

cond.true:                                        ; preds = %entry
  br label %cond.end

cond.false:                                       ; preds = %entry
  %2 = load i32, ptr %capacity.addr, align 4
  br label %cond.end

cond.end:                                         ; preds = %cond.false, %cond.true
  %cond = phi i32 [ 0, %cond.true ], [ %2, %cond.false ]
  store i32 %cond, ptr %capacity_, align 8
  %size_ = getelementptr inbounds %"class.icu_75::CheckedArrayByteSink", ptr %this1, i32 0, i32 3
  store i32 0, ptr %size_, align 4
  %appended_ = getelementptr inbounds %"class.icu_75::CheckedArrayByteSink", ptr %this1, i32 0, i32 4
  store i32 0, ptr %appended_, align 8
  %overflowed_ = getelementptr inbounds %"class.icu_75::CheckedArrayByteSink", ptr %this1, i32 0, i32 5
  store i8 0, ptr %overflowed_, align 4
  ret void
}