; Function Attrs: mustprogress nofree norecurse nosync nounwind willreturn memory(argmem: write) uwtable
define void @_ZN6icu_7520CheckedArrayByteSinkC2EPci(ptr nocapture noundef nonnull writeonly align 8 dereferenceable(29) %this, ptr noundef %outbuf, i32 noundef %capacity) unnamed_addr #3 align 2 {
entry:
  store ptr getelementptr inbounds ({ [8 x ptr] }, ptr @_ZTVN6icu_7520CheckedArrayByteSinkE, i64 0, i32 0, i64 2), ptr %this, align 8
  %outbuf_ = getelementptr inbounds i8, ptr %this, i64 8
  store ptr %outbuf, ptr %outbuf_, align 8
  %capacity_ = getelementptr inbounds i8, ptr %this, i64 16
  %cond = tail call i32 @llvm.smax.i32(i32 %capacity, i32 0)
  store i32 %cond, ptr %capacity_, align 8
  %size_ = getelementptr inbounds i8, ptr %this, i64 20
  tail call void @llvm.memset.p0.i64(ptr noundef nonnull align 4 dereferenceable(9) %size_, i8 0, i64 9, i1 false)
  ret void
}